; Function Attrs: mustprogress nofree norecurse nosync nounwind willreturn memory(none) uwtable
define noundef nonnull ptr @libraw_strerror(i32 noundef %0) local_unnamed_addr #2 {
  switch i32 %0, label %18 [
    i32 0, label %19
    i32 -1, label %2
    i32 -2, label %3
    i32 -3, label %4
    i32 -4, label %5
    i32 -5, label %6
    i32 -6, label %7
    i32 -7, label %8
    i32 -8, label %9
    i32 -9, label %10
    i32 -100013, label %11
    i32 -100007, label %12
    i32 -100008, label %13
    i32 -100009, label %14
    i32 -100010, label %15
    i32 -100011, label %16
    i32 -100012, label %17
  ]

2:                                                ; preds = %1
  br label %19

3:                                                ; preds = %1
  br label %19

4:                                                ; preds = %1
  br label %19

5:                                                ; preds = %1
  br label %19

6:                                                ; preds = %1
  br label %19

7:                                                ; preds = %1
  br label %19

8:                                                ; preds = %1
  br label %19

9:                                                ; preds = %1
  br label %19

10:                                               ; preds = %1
  br label %19

11:                                               ; preds = %1
  br label %19

12:                                               ; preds = %1
  br label %19

13:                                               ; preds = %1
  br label %19

14:                                               ; preds = %1
  br label %19

15:                                               ; preds = %1
  br label %19

16:                                               ; preds = %1
  br label %19

17:                                               ; preds = %1
  br label %19

18:                                               ; preds = %1
  br label %19

19:                                               ; preds = %1, %18, %17, %16, %15, %14, %13, %12, %11, %10, %9, %8, %7, %6, %5, %4, %3, %2
  %.0 = phi ptr [ @.str.20, %18 ], [ @.str.19, %17 ], [ @.str.18, %16 ], [ @.str.17, %15 ], [ @.str.16, %14 ], [ @.str.15, %13 ], [ @.str.14, %12 ], [ @.str.13, %11 ], [ @.str.12, %10 ], [ @.str.11, %9 ], [ @.str.10, %8 ], [ @.str.9, %7 ], [ @.str.8, %6 ], [ @.str.7, %5 ], [ @.str.6, %4 ], [ @.str.5, %3 ], [ @.str.4, %2 ], [ @.str.3, %1 ]
  ret ptr %.0
}